(dp0
S'px_vs_py'
p1
chep.hist.histogram
_reconstitute
p2
(((ihep.hist.axis
EvenlyBinnedAxis
p3
(dp4
S'units'
p5
S'GeV/c'
p6
sS'type'
p7
c__builtin__
float
p8
sS'_EvenlyBinnedAxis__num_bins'
p9
I8
sS'_EvenlyBinnedAxis__range'
p10
(F-2.0
F2.0
tp11
sS'name'
p12
S'p_x'
p13
sb(ihep.hist.axis
EvenlyBinnedAxis
p14
(dp15
g5
g6
sg7
g8
sg9
I8
sg10
(F-2.0
F2.0
tp16
sg12
S'p_y'
p17
sbtp18
c__builtin__
int
p19
S'poisson'
p20
I27
(lp21
I0
aI0
aI0
aI0
aI0
aI0
aI0
aI0
aI0
aI0
aI0
aI0
aI0
aI0
aI1
aI0
aI1
aI1
aI0
aI0
aI0
aI0
aI0
aI0
aI0
aI1
aI1
aI0
aI1
aI0
aI0
aI0
aI0
aI0
aI0
aI0
aI2
aI0
aI0
aI0
aI0
aI1
aI1
aI1
aI0
aI0
aI0
aI0
aI2
aI0
aI1
aI0
aI1
aI0
aI0
aI0
aI0
aI1
aI1
aI0
aI0
aI1
aI0
aI0
aI0
aI0
aI0
aI1
aI1
aI0
aI0
aI0
aI0
aI0
aI4
aI0
aI1
aI1
aI0
aI0
aI0
aI0
aI0
aI0
aI1
aI0
aI0
aI0
aI0
aI0
aI0
aI0
aI0
aI0
aI0
aI0
aI0
aI0
aI0
aI0
aN(dp22
S'expression'
p23
S'p_x, p_y'
p24
stp25
Rp26
sS'energy'
p27
g2
(((ihep.hist.axis
EvenlyBinnedAxis
p28
(dp29
g5
S'GeV'
p30
sg7
g8
sg9
I20
sg10
(F0.0
F5.0
tp31
sg12
g27
sbtp32
g19
S'poisson'
p33
I27
(lp34
I0
aI0
aI0
aI0
aI0
aI5
aI1
aI5
aI2
aI9
aI5
aI0
aI0
aI0
aI0
aI0
aI0
aI0
aI0
aI0
aI0
aI0
aN(dp35
g23
g27
stp36
Rp37
sS'mass'
p38
g2
(((ihep.hist.axis
EvenlyBinnedAxis
p39
(dp40
g5
S'GeV/c^2'
p41
sg7
g8
sg9
I20
sg10
(F0.0
F0.20000000000000001
tp42
sg12
g38
sbtp43
g19
S'poisson'
p44
I27
(lp45
I0
aI0
aI0
aI0
aI0
aI0
aI0
aI0
aI0
aI0
aI0
aI27
aI0
aI0
aI0
aI0
aI0
aI0
aI0
aI0
aI0
aI0
aN(dp46
g23
S'sqrt(energy**2 - p_x**2 - p_y**2 - p_z**2)'
p47
stp48
Rp49
sS'pt'
p50
g2
(((ihep.hist.axis
EvenlyBinnedAxis
p51
(dp52
g5
g6
sg7
g8
sg9
I20
sg10
(F1.0
F3.0
tp53
sg12
S'p_T'
p54
sbtp55
g19
S'poisson'
p56
I27
(lp57
I2
aI1
aI3
aI1
aI2
aI2
aI2
aI3
aI2
aI2
aI3
aI3
aI1
aI0
aI0
aI0
aI0
aI0
aI0
aI0
aI0
aI0
aN(dp58
g23
S'hypot(p_x, p_y)'
p59
stp60
Rp61
s.